target datalayout = "e-m:e-p270:32:32-p271:32:32-p272:64:64-i64:64-i128:128-f80:128-n8:16:32:64-S128"
target triple = "x86_64-pc-linux-gnu"

@ff_crop_tab = external hidden constant [2304 x i8], align 16

; Function Attrs: nounwind uwtable
define internal void @put_rv40_qpel8_h_lowpass(ptr noundef %0, ptr noundef %1, i32 noundef %2, i32 noundef %3, i32 noundef %4, i32 noundef %5, i32 noundef %6, i32 noundef %7) #3 {
  %9 = alloca ptr, align 8
  %10 = alloca ptr, align 8
  %11 = alloca i32, align 4
  %12 = alloca i32, align 4
  %13 = alloca i32, align 4
  %14 = alloca i32, align 4
  %15 = alloca i32, align 4
  %16 = alloca i32, align 4
  %17 = alloca ptr, align 8
  %18 = alloca i32, align 4
  store ptr %0, ptr %9, align 8, !tbaa !10
  store ptr %1, ptr %10, align 8, !tbaa !10
  store i32 %2, ptr %11, align 4, !tbaa !14
  store i32 %3, ptr %12, align 4, !tbaa !14
  store i32 %4, ptr %13, align 4, !tbaa !14
  store i32 %5, ptr %14, align 4, !tbaa !14
  store i32 %6, ptr %15, align 4, !tbaa !14
  store i32 %7, ptr %16, align 4, !tbaa !14
  call void @llvm.lifetime.start.p0(i64 8, ptr %17) #7
  store ptr getelementptr inbounds (i8, ptr @ff_crop_tab, i64 1024), ptr %17, align 8, !tbaa !10
  call void @llvm.lifetime.start.p0(i64 4, ptr %18) #7
  store i32 0, ptr %18, align 4, !tbaa !14
  br label %19

19:                                               ; preds = %400, %8
  %20 = load i32, ptr %18, align 4, !tbaa !14
  %21 = load i32, ptr %13, align 4, !tbaa !14
  %22 = icmp slt i32 %20, %21
  br i1 %22, label %23, label %403

23:                                               ; preds = %19
  %24 = load ptr, ptr %17, align 8, !tbaa !10
  %25 = load ptr, ptr %10, align 8, !tbaa !10
  %26 = getelementptr inbounds i8, ptr %25, i64 -2
  %27 = load i8, ptr %26, align 1, !tbaa !16
  %28 = zext i8 %27 to i32
  %29 = load ptr, ptr %10, align 8, !tbaa !10
  %30 = getelementptr inbounds i8, ptr %29, i64 3
  %31 = load i8, ptr %30, align 1, !tbaa !16
  %32 = zext i8 %31 to i32
  %33 = add nsw i32 %28, %32
  %34 = load ptr, ptr %10, align 8, !tbaa !10
  %35 = getelementptr inbounds i8, ptr %34, i64 -1
  %36 = load i8, ptr %35, align 1, !tbaa !16
  %37 = zext i8 %36 to i32
  %38 = load ptr, ptr %10, align 8, !tbaa !10
  %39 = getelementptr inbounds i8, ptr %38, i64 2
  %40 = load i8, ptr %39, align 1, !tbaa !16
  %41 = zext i8 %40 to i32
  %42 = add nsw i32 %37, %41
  %43 = mul nsw i32 5, %42
  %44 = sub nsw i32 %33, %43
  %45 = load ptr, ptr %10, align 8, !tbaa !10
  %46 = getelementptr inbounds i8, ptr %45, i64 0
  %47 = load i8, ptr %46, align 1, !tbaa !16
  %48 = zext i8 %47 to i32
  %49 = load i32, ptr %14, align 4, !tbaa !14
  %50 = mul nsw i32 %48, %49
  %51 = add nsw i32 %44, %50
  %52 = load ptr, ptr %10, align 8, !tbaa !10
  %53 = getelementptr inbounds i8, ptr %52, i64 1
  %54 = load i8, ptr %53, align 1, !tbaa !16
  %55 = zext i8 %54 to i32
  %56 = load i32, ptr %15, align 4, !tbaa !14
  %57 = mul nsw i32 %55, %56
  %58 = add nsw i32 %51, %57
  %59 = load i32, ptr %16, align 4, !tbaa !14
  %60 = sub nsw i32 %59, 1
  %61 = shl i32 1, %60
  %62 = add nsw i32 %58, %61
  %63 = load i32, ptr %16, align 4, !tbaa !14
  %64 = ashr i32 %62, %63
  %65 = sext i32 %64 to i64
  %66 = getelementptr inbounds i8, ptr %24, i64 %65
  %67 = load i8, ptr %66, align 1, !tbaa !16
  %68 = load ptr, ptr %9, align 8, !tbaa !10
  %69 = getelementptr inbounds i8, ptr %68, i64 0
  store i8 %67, ptr %69, align 1, !tbaa !16
  %70 = load ptr, ptr %17, align 8, !tbaa !10
  %71 = load ptr, ptr %10, align 8, !tbaa !10
  %72 = getelementptr inbounds i8, ptr %71, i64 -1
  %73 = load i8, ptr %72, align 1, !tbaa !16
  %74 = zext i8 %73 to i32
  %75 = load ptr, ptr %10, align 8, !tbaa !10
  %76 = getelementptr inbounds i8, ptr %75, i64 4
  %77 = load i8, ptr %76, align 1, !tbaa !16
  %78 = zext i8 %77 to i32
  %79 = add nsw i32 %74, %78
  %80 = load ptr, ptr %10, align 8, !tbaa !10
  %81 = getelementptr inbounds i8, ptr %80, i64 0
  %82 = load i8, ptr %81, align 1, !tbaa !16
  %83 = zext i8 %82 to i32
  %84 = load ptr, ptr %10, align 8, !tbaa !10
  %85 = getelementptr inbounds i8, ptr %84, i64 3
  %86 = load i8, ptr %85, align 1, !tbaa !16
  %87 = zext i8 %86 to i32
  %88 = add nsw i32 %83, %87
  %89 = mul nsw i32 5, %88
  %90 = sub nsw i32 %79, %89
  %91 = load ptr, ptr %10, align 8, !tbaa !10
  %92 = getelementptr inbounds i8, ptr %91, i64 1
  %93 = load i8, ptr %92, align 1, !tbaa !16
  %94 = zext i8 %93 to i32
  %95 = load i32, ptr %14, align 4, !tbaa !14
  %96 = mul nsw i32 %94, %95
  %97 = add nsw i32 %90, %96
  %98 = load ptr, ptr %10, align 8, !tbaa !10
  %99 = getelementptr inbounds i8, ptr %98, i64 2
  %100 = load i8, ptr %99, align 1, !tbaa !16
  %101 = zext i8 %100 to i32
  %102 = load i32, ptr %15, align 4, !tbaa !14
  %103 = mul nsw i32 %101, %102
  %104 = add nsw i32 %97, %103
  %105 = load i32, ptr %16, align 4, !tbaa !14
  %106 = sub nsw i32 %105, 1
  %107 = shl i32 1, %106
  %108 = add nsw i32 %104, %107
  %109 = load i32, ptr %16, align 4, !tbaa !14
  %110 = ashr i32 %108, %109
  %111 = sext i32 %110 to i64
  %112 = getelementptr inbounds i8, ptr %70, i64 %111
  %113 = load i8, ptr %112, align 1, !tbaa !16
  %114 = load ptr, ptr %9, align 8, !tbaa !10
  %115 = getelementptr inbounds i8, ptr %114, i64 1
  store i8 %113, ptr %115, align 1, !tbaa !16
  %116 = load ptr, ptr %17, align 8, !tbaa !10
  %117 = load ptr, ptr %10, align 8, !tbaa !10
  %118 = getelementptr inbounds i8, ptr %117, i64 0
  %119 = load i8, ptr %118, align 1, !tbaa !16
  %120 = zext i8 %119 to i32
  %121 = load ptr, ptr %10, align 8, !tbaa !10
  %122 = getelementptr inbounds i8, ptr %121, i64 5
  %123 = load i8, ptr %122, align 1, !tbaa !16
  %124 = zext i8 %123 to i32
  %125 = add nsw i32 %120, %124
  %126 = load ptr, ptr %10, align 8, !tbaa !10
  %127 = getelementptr inbounds i8, ptr %126, i64 1
  %128 = load i8, ptr %127, align 1, !tbaa !16
  %129 = zext i8 %128 to i32
  %130 = load ptr, ptr %10, align 8, !tbaa !10
  %131 = getelementptr inbounds i8, ptr %130, i64 4
  %132 = load i8, ptr %131, align 1, !tbaa !16
  %133 = zext i8 %132 to i32
  %134 = add nsw i32 %129, %133
  %135 = mul nsw i32 5, %134
  %136 = sub nsw i32 %125, %135
  %137 = load ptr, ptr %10, align 8, !tbaa !10
  %138 = getelementptr inbounds i8, ptr %137, i64 2
  %139 = load i8, ptr %138, align 1, !tbaa !16
  %140 = zext i8 %139 to i32
  %141 = load i32, ptr %14, align 4, !tbaa !14
  %142 = mul nsw i32 %140, %141
  %143 = add nsw i32 %136, %142
  %144 = load ptr, ptr %10, align 8, !tbaa !10
  %145 = getelementptr inbounds i8, ptr %144, i64 3
  %146 = load i8, ptr %145, align 1, !tbaa !16
  %147 = zext i8 %146 to i32
  %148 = load i32, ptr %15, align 4, !tbaa !14
  %149 = mul nsw i32 %147, %148
  %150 = add nsw i32 %143, %149
  %151 = load i32, ptr %16, align 4, !tbaa !14
  %152 = sub nsw i32 %151, 1
  %153 = shl i32 1, %152
  %154 = add nsw i32 %150, %153
  %155 = load i32, ptr %16, align 4, !tbaa !14
  %156 = ashr i32 %154, %155
  %157 = sext i32 %156 to i64
  %158 = getelementptr inbounds i8, ptr %116, i64 %157
  %159 = load i8, ptr %158, align 1, !tbaa !16
  %160 = load ptr, ptr %9, align 8, !tbaa !10
  %161 = getelementptr inbounds i8, ptr %160, i64 2
  store i8 %159, ptr %161, align 1, !tbaa !16
  %162 = load ptr, ptr %17, align 8, !tbaa !10
  %163 = load ptr, ptr %10, align 8, !tbaa !10
  %164 = getelementptr inbounds i8, ptr %163, i64 1
  %165 = load i8, ptr %164, align 1, !tbaa !16
  %166 = zext i8 %165 to i32
  %167 = load ptr, ptr %10, align 8, !tbaa !10
  %168 = getelementptr inbounds i8, ptr %167, i64 6
  %169 = load i8, ptr %168, align 1, !tbaa !16
  %170 = zext i8 %169 to i32
  %171 = add nsw i32 %166, %170
  %172 = load ptr, ptr %10, align 8, !tbaa !10
  %173 = getelementptr inbounds i8, ptr %172, i64 2
  %174 = load i8, ptr %173, align 1, !tbaa !16
  %175 = zext i8 %174 to i32
  %176 = load ptr, ptr %10, align 8, !tbaa !10
  %177 = getelementptr inbounds i8, ptr %176, i64 5
  %178 = load i8, ptr %177, align 1, !tbaa !16
  %179 = zext i8 %178 to i32
  %180 = add nsw i32 %175, %179
  %181 = mul nsw i32 5, %180
  %182 = sub nsw i32 %171, %181
  %183 = load ptr, ptr %10, align 8, !tbaa !10
  %184 = getelementptr inbounds i8, ptr %183, i64 3
  %185 = load i8, ptr %184, align 1, !tbaa !16
  %186 = zext i8 %185 to i32
  %187 = load i32, ptr %14, align 4, !tbaa !14
  %188 = mul nsw i32 %186, %187
  %189 = add nsw i32 %182, %188
  %190 = load ptr, ptr %10, align 8, !tbaa !10
  %191 = getelementptr inbounds i8, ptr %190, i64 4
  %192 = load i8, ptr %191, align 1, !tbaa !16
  %193 = zext i8 %192 to i32
  %194 = load i32, ptr %15, align 4, !tbaa !14
  %195 = mul nsw i32 %193, %194
  %196 = add nsw i32 %189, %195
  %197 = load i32, ptr %16, align 4, !tbaa !14
  %198 = sub nsw i32 %197, 1
  %199 = shl i32 1, %198
  %200 = add nsw i32 %196, %199
  %201 = load i32, ptr %16, align 4, !tbaa !14
  %202 = ashr i32 %200, %201
  %203 = sext i32 %202 to i64
  %204 = getelementptr inbounds i8, ptr %162, i64 %203
  %205 = load i8, ptr %204, align 1, !tbaa !16
  %206 = load ptr, ptr %9, align 8, !tbaa !10
  %207 = getelementptr inbounds i8, ptr %206, i64 3
  store i8 %205, ptr %207, align 1, !tbaa !16
  %208 = load ptr, ptr %17, align 8, !tbaa !10
  %209 = load ptr, ptr %10, align 8, !tbaa !10
  %210 = getelementptr inbounds i8, ptr %209, i64 2
  %211 = load i8, ptr %210, align 1, !tbaa !16
  %212 = zext i8 %211 to i32
  %213 = load ptr, ptr %10, align 8, !tbaa !10
  %214 = getelementptr inbounds i8, ptr %213, i64 7
  %215 = load i8, ptr %214, align 1, !tbaa !16
  %216 = zext i8 %215 to i32
  %217 = add nsw i32 %212, %216
  %218 = load ptr, ptr %10, align 8, !tbaa !10
  %219 = getelementptr inbounds i8, ptr %218, i64 3
  %220 = load i8, ptr %219, align 1, !tbaa !16
  %221 = zext i8 %220 to i32
  %222 = load ptr, ptr %10, align 8, !tbaa !10
  %223 = getelementptr inbounds i8, ptr %222, i64 6
  %224 = load i8, ptr %223, align 1, !tbaa !16
  %225 = zext i8 %224 to i32
  %226 = add nsw i32 %221, %225
  %227 = mul nsw i32 5, %226
  %228 = sub nsw i32 %217, %227
  %229 = load ptr, ptr %10, align 8, !tbaa !10
  %230 = getelementptr inbounds i8, ptr %229, i64 4
  %231 = load i8, ptr %230, align 1, !tbaa !16
  %232 = zext i8 %231 to i32
  %233 = load i32, ptr %14, align 4, !tbaa !14
  %234 = mul nsw i32 %232, %233
  %235 = add nsw i32 %228, %234
  %236 = load ptr, ptr %10, align 8, !tbaa !10
  %237 = getelementptr inbounds i8, ptr %236, i64 5
  %238 = load i8, ptr %237, align 1, !tbaa !16
  %239 = zext i8 %238 to i32
  %240 = load i32, ptr %15, align 4, !tbaa !14
  %241 = mul nsw i32 %239, %240
  %242 = add nsw i32 %235, %241
  %243 = load i32, ptr %16, align 4, !tbaa !14
  %244 = sub nsw i32 %243, 1
  %245 = shl i32 1, %244
  %246 = add nsw i32 %242, %245
  %247 = load i32, ptr %16, align 4, !tbaa !14
  %248 = ashr i32 %246, %247
  %249 = sext i32 %248 to i64
  %250 = getelementptr inbounds i8, ptr %208, i64 %249
  %251 = load i8, ptr %250, align 1, !tbaa !16
  %252 = load ptr, ptr %9, align 8, !tbaa !10
  %253 = getelementptr inbounds i8, ptr %252, i64 4
  store i8 %251, ptr %253, align 1, !tbaa !16
  %254 = load ptr, ptr %17, align 8, !tbaa !10
  %255 = load ptr, ptr %10, align 8, !tbaa !10
  %256 = getelementptr inbounds i8, ptr %255, i64 3
  %257 = load i8, ptr %256, align 1, !tbaa !16
  %258 = zext i8 %257 to i32
  %259 = load ptr, ptr %10, align 8, !tbaa !10
  %260 = getelementptr inbounds i8, ptr %259, i64 8
  %261 = load i8, ptr %260, align 1, !tbaa !16
  %262 = zext i8 %261 to i32
  %263 = add nsw i32 %258, %262
  %264 = load ptr, ptr %10, align 8, !tbaa !10
  %265 = getelementptr inbounds i8, ptr %264, i64 4
  %266 = load i8, ptr %265, align 1, !tbaa !16
  %267 = zext i8 %266 to i32
  %268 = load ptr, ptr %10, align 8, !tbaa !10
  %269 = getelementptr inbounds i8, ptr %268, i64 7
  %270 = load i8, ptr %269, align 1, !tbaa !16
  %271 = zext i8 %270 to i32
  %272 = add nsw i32 %267, %271
  %273 = mul nsw i32 5, %272
  %274 = sub nsw i32 %263, %273
  %275 = load ptr, ptr %10, align 8, !tbaa !10
  %276 = getelementptr inbounds i8, ptr %275, i64 5
  %277 = load i8, ptr %276, align 1, !tbaa !16
  %278 = zext i8 %277 to i32
  %279 = load i32, ptr %14, align 4, !tbaa !14
  %280 = mul nsw i32 %278, %279
  %281 = add nsw i32 %274, %280
  %282 = load ptr, ptr %10, align 8, !tbaa !10
  %283 = getelementptr inbounds i8, ptr %282, i64 6
  %284 = load i8, ptr %283, align 1, !tbaa !16
  %285 = zext i8 %284 to i32
  %286 = load i32, ptr %15, align 4, !tbaa !14
  %287 = mul nsw i32 %285, %286
  %288 = add nsw i32 %281, %287
  %289 = load i32, ptr %16, align 4, !tbaa !14
  %290 = sub nsw i32 %289, 1
  %291 = shl i32 1, %290
  %292 = add nsw i32 %288, %291
  %293 = load i32, ptr %16, align 4, !tbaa !14
  %294 = ashr i32 %292, %293
  %295 = sext i32 %294 to i64
  %296 = getelementptr inbounds i8, ptr %254, i64 %295
  %297 = load i8, ptr %296, align 1, !tbaa !16
  %298 = load ptr, ptr %9, align 8, !tbaa !10
  %299 = getelementptr inbounds i8, ptr %298, i64 5
  store i8 %297, ptr %299, align 1, !tbaa !16
  %300 = load ptr, ptr %17, align 8, !tbaa !10
  %301 = load ptr, ptr %10, align 8, !tbaa !10
  %302 = getelementptr inbounds i8, ptr %301, i64 4
  %303 = load i8, ptr %302, align 1, !tbaa !16
  %304 = zext i8 %303 to i32
  %305 = load ptr, ptr %10, align 8, !tbaa !10
  %306 = getelementptr inbounds i8, ptr %305, i64 9
  %307 = load i8, ptr %306, align 1, !tbaa !16
  %308 = zext i8 %307 to i32
  %309 = add nsw i32 %304, %308
  %310 = load ptr, ptr %10, align 8, !tbaa !10
  %311 = getelementptr inbounds i8, ptr %310, i64 5
  %312 = load i8, ptr %311, align 1, !tbaa !16
  %313 = zext i8 %312 to i32
  %314 = load ptr, ptr %10, align 8, !tbaa !10
  %315 = getelementptr inbounds i8, ptr %314, i64 8
  %316 = load i8, ptr %315, align 1, !tbaa !16
  %317 = zext i8 %316 to i32
  %318 = add nsw i32 %313, %317
  %319 = mul nsw i32 5, %318
  %320 = sub nsw i32 %309, %319
  %321 = load ptr, ptr %10, align 8, !tbaa !10
  %322 = getelementptr inbounds i8, ptr %321, i64 6
  %323 = load i8, ptr %322, align 1, !tbaa !16
  %324 = zext i8 %323 to i32
  %325 = load i32, ptr %14, align 4, !tbaa !14
  %326 = mul nsw i32 %324, %325
  %327 = add nsw i32 %320, %326
  %328 = load ptr, ptr %10, align 8, !tbaa !10
  %329 = getelementptr inbounds i8, ptr %328, i64 7
  %330 = load i8, ptr %329, align 1, !tbaa !16
  %331 = zext i8 %330 to i32
  %332 = load i32, ptr %15, align 4, !tbaa !14
  %333 = mul nsw i32 %331, %332
  %334 = add nsw i32 %327, %333
  %335 = load i32, ptr %16, align 4, !tbaa !14
  %336 = sub nsw i32 %335, 1
  %337 = shl i32 1, %336
  %338 = add nsw i32 %334, %337
  %339 = load i32, ptr %16, align 4, !tbaa !14
  %340 = ashr i32 %338, %339
  %341 = sext i32 %340 to i64
  %342 = getelementptr inbounds i8, ptr %300, i64 %341
  %343 = load i8, ptr %342, align 1, !tbaa !16
  %344 = load ptr, ptr %9, align 8, !tbaa !10
  %345 = getelementptr inbounds i8, ptr %344, i64 6
  store i8 %343, ptr %345, align 1, !tbaa !16
  %346 = load ptr, ptr %17, align 8, !tbaa !10
  %347 = load ptr, ptr %10, align 8, !tbaa !10
  %348 = getelementptr inbounds i8, ptr %347, i64 5
  %349 = load i8, ptr %348, align 1, !tbaa !16
  %350 = zext i8 %349 to i32
  %351 = load ptr, ptr %10, align 8, !tbaa !10
  %352 = getelementptr inbounds i8, ptr %351, i64 10
  %353 = load i8, ptr %352, align 1, !tbaa !16
  %354 = zext i8 %353 to i32
  %355 = add nsw i32 %350, %354
  %356 = load ptr, ptr %10, align 8, !tbaa !10
  %357 = getelementptr inbounds i8, ptr %356, i64 6
  %358 = load i8, ptr %357, align 1, !tbaa !16
  %359 = zext i8 %358 to i32
  %360 = load ptr, ptr %10, align 8, !tbaa !10
  %361 = getelementptr inbounds i8, ptr %360, i64 9
  %362 = load i8, ptr %361, align 1, !tbaa !16
  %363 = zext i8 %362 to i32
  %364 = add nsw i32 %359, %363
  %365 = mul nsw i32 5, %364
  %366 = sub nsw i32 %355, %365
  %367 = load ptr, ptr %10, align 8, !tbaa !10
  %368 = getelementptr inbounds i8, ptr %367, i64 7
  %369 = load i8, ptr %368, align 1, !tbaa !16
  %370 = zext i8 %369 to i32
  %371 = load i32, ptr %14, align 4, !tbaa !14
  %372 = mul nsw i32 %370, %371
  %373 = add nsw i32 %366, %372
  %374 = load ptr, ptr %10, align 8, !tbaa !10
  %375 = getelementptr inbounds i8, ptr %374, i64 8
  %376 = load i8, ptr %375, align 1, !tbaa !16
  %377 = zext i8 %376 to i32
  %378 = load i32, ptr %15, align 4, !tbaa !14
  %379 = mul nsw i32 %377, %378
  %380 = add nsw i32 %373, %379
  %381 = load i32, ptr %16, align 4, !tbaa !14
  %382 = sub nsw i32 %381, 1
  %383 = shl i32 1, %382
  %384 = add nsw i32 %380, %383
  %385 = load i32, ptr %16, align 4, !tbaa !14
  %386 = ashr i32 %384, %385
  %387 = sext i32 %386 to i64
  %388 = getelementptr inbounds i8, ptr %346, i64 %387
  %389 = load i8, ptr %388, align 1, !tbaa !16
  %390 = load ptr, ptr %9, align 8, !tbaa !10
  %391 = getelementptr inbounds i8, ptr %390, i64 7
  store i8 %389, ptr %391, align 1, !tbaa !16
  %392 = load i32, ptr %11, align 4, !tbaa !14
  %393 = load ptr, ptr %9, align 8, !tbaa !10
  %394 = sext i32 %392 to i64
  %395 = getelementptr inbounds i8, ptr %393, i64 %394
  store ptr %395, ptr %9, align 8, !tbaa !10
  %396 = load i32, ptr %12, align 4, !tbaa !14
  %397 = load ptr, ptr %10, align 8, !tbaa !10
  %398 = sext i32 %396 to i64
  %399 = getelementptr inbounds i8, ptr %397, i64 %398
  store ptr %399, ptr %10, align 8, !tbaa !10
  br label %400

400:                                              ; preds = %23
  %401 = load i32, ptr %18, align 4, !tbaa !14
  %402 = add nsw i32 %401, 1
  store i32 %402, ptr %18, align 4, !tbaa !14
  br label %19, !llvm.loop !36

403:                                              ; preds = %19
  call void @llvm.lifetime.end.p0(i64 4, ptr %18) #7
  call void @llvm.lifetime.end.p0(i64 8, ptr %17) #7
  ret void
}