; Function Attrs: nofree norecurse nosync nounwind memory(argmem: readwrite) uwtable
define internal fastcc void @put_rv40_qpel8_h_lowpass(ptr noundef writeonly captures(none) %0, ptr noundef readonly captures(none) %1, i32 noundef %2, i32 noundef %3, i32 noundef range(i32 8, 14) %4, i32 noundef range(i32 20, 53) %5, i32 noundef range(i32 20, 53) %6, i32 noundef range(i32 5, 7) %7) unnamed_addr #3 {
  %9 = add nsw i32 %7, -1
  %10 = shl nuw nsw i32 1, %9
  %11 = sext i32 %2 to i64
  %12 = sext i32 %3 to i64
  br label %13

13:                                               ; preds = %8, %13
  %.0113 = phi i32 [ 0, %8 ], [ %227, %13 ]
  %.0102112 = phi ptr [ %0, %8 ], [ %225, %13 ]
  %.0103111 = phi ptr [ %1, %8 ], [ %226, %13 ]
  %14 = getelementptr inbounds i8, ptr %.0103111, i64 -2
  %15 = load i8, ptr %14, align 1, !tbaa !8
  %16 = zext i8 %15 to i32
  %17 = getelementptr inbounds nuw i8, ptr %.0103111, i64 3
  %18 = load i8, ptr %17, align 1, !tbaa !8
  %19 = zext i8 %18 to i32
  %20 = getelementptr inbounds i8, ptr %.0103111, i64 -1
  %21 = load i8, ptr %20, align 1, !tbaa !8
  %22 = zext i8 %21 to i32
  %23 = getelementptr inbounds nuw i8, ptr %.0103111, i64 2
  %24 = load i8, ptr %23, align 1, !tbaa !8
  %25 = zext i8 %24 to i32
  %26 = add nuw nsw i32 %25, %22
  %.neg = mul nsw i32 %26, -5
  %27 = load i8, ptr %.0103111, align 1, !tbaa !8
  %28 = zext i8 %27 to i32
  %29 = mul nuw nsw i32 %5, %28
  %30 = getelementptr inbounds nuw i8, ptr %.0103111, i64 1
  %31 = load i8, ptr %30, align 1, !tbaa !8
  %32 = zext i8 %31 to i32
  %33 = mul nuw nsw i32 %6, %32
  %34 = add nuw nsw i32 %10, %16
  %35 = add nuw nsw i32 %34, %19
  %36 = add nsw i32 %35, %.neg
  %37 = add nsw i32 %36, %29
  %38 = add nsw i32 %37, %33
  %39 = ashr i32 %38, %7
  %40 = sext i32 %39 to i64
  %41 = getelementptr inbounds i8, ptr getelementptr inbounds nuw (i8, ptr @ff_crop_tab, i64 1024), i64 %40
  %42 = load i8, ptr %41, align 1, !tbaa !8
  store i8 %42, ptr %.0102112, align 1, !tbaa !8
  %43 = load i8, ptr %20, align 1, !tbaa !8
  %44 = zext i8 %43 to i32
  %45 = getelementptr inbounds nuw i8, ptr %.0103111, i64 4
  %46 = load i8, ptr %45, align 1, !tbaa !8
  %47 = zext i8 %46 to i32
  %48 = load i8, ptr %.0103111, align 1, !tbaa !8
  %49 = zext i8 %48 to i32
  %50 = load i8, ptr %17, align 1, !tbaa !8
  %51 = zext i8 %50 to i32
  %52 = add nuw nsw i32 %51, %49
  %.neg104 = mul nsw i32 %52, -5
  %53 = load i8, ptr %30, align 1, !tbaa !8
  %54 = zext i8 %53 to i32
  %55 = mul nuw nsw i32 %5, %54
  %56 = load i8, ptr %23, align 1, !tbaa !8
  %57 = zext i8 %56 to i32
  %58 = mul nuw nsw i32 %6, %57
  %59 = add nuw nsw i32 %10, %44
  %60 = add nuw nsw i32 %59, %47
  %61 = add nsw i32 %60, %.neg104
  %62 = add nsw i32 %61, %55
  %63 = add nsw i32 %62, %58
  %64 = ashr i32 %63, %7
  %65 = sext i32 %64 to i64
  %66 = getelementptr inbounds i8, ptr getelementptr inbounds nuw (i8, ptr @ff_crop_tab, i64 1024), i64 %65
  %67 = load i8, ptr %66, align 1, !tbaa !8
  %68 = getelementptr inbounds nuw i8, ptr %.0102112, i64 1
  store i8 %67, ptr %68, align 1, !tbaa !8
  %69 = load i8, ptr %.0103111, align 1, !tbaa !8
  %70 = zext i8 %69 to i32
  %71 = getelementptr inbounds nuw i8, ptr %.0103111, i64 5
  %72 = load i8, ptr %71, align 1, !tbaa !8
  %73 = zext i8 %72 to i32
  %74 = load i8, ptr %30, align 1, !tbaa !8
  %75 = zext i8 %74 to i32
  %76 = load i8, ptr %45, align 1, !tbaa !8
  %77 = zext i8 %76 to i32
  %78 = add nuw nsw i32 %77, %75
  %.neg105 = mul nsw i32 %78, -5
  %79 = load i8, ptr %23, align 1, !tbaa !8
  %80 = zext i8 %79 to i32
  %81 = mul nuw nsw i32 %5, %80
  %82 = load i8, ptr %17, align 1, !tbaa !8
  %83 = zext i8 %82 to i32
  %84 = mul nuw nsw i32 %6, %83
  %85 = add nuw nsw i32 %10, %70
  %86 = add nuw nsw i32 %85, %73
  %87 = add nsw i32 %86, %.neg105
  %88 = add nsw i32 %87, %81
  %89 = add nsw i32 %88, %84
  %90 = ashr i32 %89, %7
  %91 = sext i32 %90 to i64
  %92 = getelementptr inbounds i8, ptr getelementptr inbounds nuw (i8, ptr @ff_crop_tab, i64 1024), i64 %91
  %93 = load i8, ptr %92, align 1, !tbaa !8
  %94 = getelementptr inbounds nuw i8, ptr %.0102112, i64 2
  store i8 %93, ptr %94, align 1, !tbaa !8
  %95 = load i8, ptr %30, align 1, !tbaa !8
  %96 = zext i8 %95 to i32
  %97 = getelementptr inbounds nuw i8, ptr %.0103111, i64 6
  %98 = load i8, ptr %97, align 1, !tbaa !8
  %99 = zext i8 %98 to i32
  %100 = load i8, ptr %23, align 1, !tbaa !8
  %101 = zext i8 %100 to i32
  %102 = load i8, ptr %71, align 1, !tbaa !8
  %103 = zext i8 %102 to i32
  %104 = add nuw nsw i32 %103, %101
  %.neg106 = mul nsw i32 %104, -5
  %105 = load i8, ptr %17, align 1, !tbaa !8
  %106 = zext i8 %105 to i32
  %107 = mul nuw nsw i32 %5, %106
  %108 = load i8, ptr %45, align 1, !tbaa !8
  %109 = zext i8 %108 to i32
  %110 = mul nuw nsw i32 %6, %109
  %111 = add nuw nsw i32 %10, %96
  %112 = add nuw nsw i32 %111, %99
  %113 = add nsw i32 %112, %.neg106
  %114 = add nsw i32 %113, %107
  %115 = add nsw i32 %114, %110
  %116 = ashr i32 %115, %7
  %117 = sext i32 %116 to i64
  %118 = getelementptr inbounds i8, ptr getelementptr inbounds nuw (i8, ptr @ff_crop_tab, i64 1024), i64 %117
  %119 = load i8, ptr %118, align 1, !tbaa !8
  %120 = getelementptr inbounds nuw i8, ptr %.0102112, i64 3
  store i8 %119, ptr %120, align 1, !tbaa !8
  %121 = load i8, ptr %23, align 1, !tbaa !8
  %122 = zext i8 %121 to i32
  %123 = getelementptr inbounds nuw i8, ptr %.0103111, i64 7
  %124 = load i8, ptr %123, align 1, !tbaa !8
  %125 = zext i8 %124 to i32
  %126 = load i8, ptr %17, align 1, !tbaa !8
  %127 = zext i8 %126 to i32
  %128 = load i8, ptr %97, align 1, !tbaa !8
  %129 = zext i8 %128 to i32
  %130 = add nuw nsw i32 %129, %127
  %.neg107 = mul nsw i32 %130, -5
  %131 = load i8, ptr %45, align 1, !tbaa !8
  %132 = zext i8 %131 to i32
  %133 = mul nuw nsw i32 %5, %132
  %134 = load i8, ptr %71, align 1, !tbaa !8
  %135 = zext i8 %134 to i32
  %136 = mul nuw nsw i32 %6, %135
  %137 = add nuw nsw i32 %10, %122
  %138 = add nuw nsw i32 %137, %125
  %139 = add nsw i32 %138, %.neg107
  %140 = add nsw i32 %139, %133
  %141 = add nsw i32 %140, %136
  %142 = ashr i32 %141, %7
  %143 = sext i32 %142 to i64
  %144 = getelementptr inbounds i8, ptr getelementptr inbounds nuw (i8, ptr @ff_crop_tab, i64 1024), i64 %143
  %145 = load i8, ptr %144, align 1, !tbaa !8
  %146 = getelementptr inbounds nuw i8, ptr %.0102112, i64 4
  store i8 %145, ptr %146, align 1, !tbaa !8
  %147 = load i8, ptr %17, align 1, !tbaa !8
  %148 = zext i8 %147 to i32
  %149 = getelementptr inbounds nuw i8, ptr %.0103111, i64 8
  %150 = load i8, ptr %149, align 1, !tbaa !8
  %151 = zext i8 %150 to i32
  %152 = load i8, ptr %45, align 1, !tbaa !8
  %153 = zext i8 %152 to i32
  %154 = load i8, ptr %123, align 1, !tbaa !8
  %155 = zext i8 %154 to i32
  %156 = add nuw nsw i32 %155, %153
  %.neg108 = mul nsw i32 %156, -5
  %157 = load i8, ptr %71, align 1, !tbaa !8
  %158 = zext i8 %157 to i32
  %159 = mul nuw nsw i32 %5, %158
  %160 = load i8, ptr %97, align 1, !tbaa !8
  %161 = zext i8 %160 to i32
  %162 = mul nuw nsw i32 %6, %161
  %163 = add nuw nsw i32 %10, %148
  %164 = add nuw nsw i32 %163, %151
  %165 = add nsw i32 %164, %.neg108
  %166 = add nsw i32 %165, %159
  %167 = add nsw i32 %166, %162
  %168 = ashr i32 %167, %7
  %169 = sext i32 %168 to i64
  %170 = getelementptr inbounds i8, ptr getelementptr inbounds nuw (i8, ptr @ff_crop_tab, i64 1024), i64 %169
  %171 = load i8, ptr %170, align 1, !tbaa !8
  %172 = getelementptr inbounds nuw i8, ptr %.0102112, i64 5
  store i8 %171, ptr %172, align 1, !tbaa !8
  %173 = load i8, ptr %45, align 1, !tbaa !8
  %174 = zext i8 %173 to i32
  %175 = getelementptr inbounds nuw i8, ptr %.0103111, i64 9
  %176 = load i8, ptr %175, align 1, !tbaa !8
  %177 = zext i8 %176 to i32
  %178 = load i8, ptr %71, align 1, !tbaa !8
  %179 = zext i8 %178 to i32
  %180 = load i8, ptr %149, align 1, !tbaa !8
  %181 = zext i8 %180 to i32
  %182 = add nuw nsw i32 %181, %179
  %.neg109 = mul nsw i32 %182, -5
  %183 = load i8, ptr %97, align 1, !tbaa !8
  %184 = zext i8 %183 to i32
  %185 = mul nuw nsw i32 %5, %184
  %186 = load i8, ptr %123, align 1, !tbaa !8
  %187 = zext i8 %186 to i32
  %188 = mul nuw nsw i32 %6, %187
  %189 = add nuw nsw i32 %10, %174
  %190 = add nuw nsw i32 %189, %177
  %191 = add nsw i32 %190, %.neg109
  %192 = add nsw i32 %191, %185
  %193 = add nsw i32 %192, %188
  %194 = ashr i32 %193, %7
  %195 = sext i32 %194 to i64
  %196 = getelementptr inbounds i8, ptr getelementptr inbounds nuw (i8, ptr @ff_crop_tab, i64 1024), i64 %195
  %197 = load i8, ptr %196, align 1, !tbaa !8
  %198 = getelementptr inbounds nuw i8, ptr %.0102112, i64 6
  store i8 %197, ptr %198, align 1, !tbaa !8
  %199 = load i8, ptr %71, align 1, !tbaa !8
  %200 = zext i8 %199 to i32
  %201 = getelementptr inbounds nuw i8, ptr %.0103111, i64 10
  %202 = load i8, ptr %201, align 1, !tbaa !8
  %203 = zext i8 %202 to i32
  %204 = load i8, ptr %97, align 1, !tbaa !8
  %205 = zext i8 %204 to i32
  %206 = load i8, ptr %175, align 1, !tbaa !8
  %207 = zext i8 %206 to i32
  %208 = add nuw nsw i32 %207, %205
  %.neg110 = mul nsw i32 %208, -5
  %209 = load i8, ptr %123, align 1, !tbaa !8
  %210 = zext i8 %209 to i32
  %211 = mul nuw nsw i32 %5, %210
  %212 = load i8, ptr %149, align 1, !tbaa !8
  %213 = zext i8 %212 to i32
  %214 = mul nuw nsw i32 %6, %213
  %215 = add nuw nsw i32 %10, %200
  %216 = add nuw nsw i32 %215, %203
  %217 = add nsw i32 %216, %.neg110
  %218 = add nsw i32 %217, %211
  %219 = add nsw i32 %218, %214
  %220 = ashr i32 %219, %7
  %221 = sext i32 %220 to i64
  %222 = getelementptr inbounds i8, ptr getelementptr inbounds nuw (i8, ptr @ff_crop_tab, i64 1024), i64 %221
  %223 = load i8, ptr %222, align 1, !tbaa !8
  %224 = getelementptr inbounds nuw i8, ptr %.0102112, i64 7
  store i8 %223, ptr %224, align 1, !tbaa !8
  %225 = getelementptr inbounds i8, ptr %.0102112, i64 %11
  %226 = getelementptr inbounds i8, ptr %.0103111, i64 %12
  %227 = add nuw nsw i32 %.0113, 1
  %exitcond.not = icmp eq i32 %227, %4
  br i1 %exitcond.not, label %228, label %13, !llvm.loop !36

228:                                              ; preds = %13
  ret void
}